; Function Attrs: mustprogress uwtable
define dso_local void @_ZN6spdlog7details11file_helper5writeERKN3fmt2v919basic_memory_bufferIcLm250ESaIcEEE(ptr noundef nonnull align 8 dereferenceable(176) %this, ptr nocapture noundef nonnull readonly align 8 dereferenceable(288) %buf) local_unnamed_addr #0 align 2 personality ptr @__gxx_personality_v0 {
entry:
  %ref.tmp = alloca %"class.std::__cxx11::basic_string", align 8
  %ref.tmp4 = alloca %"class.std::__cxx11::basic_string", align 8
  %size_.i = getelementptr inbounds i8, ptr %buf, i64 16
  %0 = load i64, ptr %size_.i, align 8
  %ptr_.i = getelementptr inbounds i8, ptr %buf, i64 8
  %1 = load ptr, ptr %ptr_.i, align 8
  %fd_ = getelementptr inbounds i8, ptr %this, i64 8
  %2 = load ptr, ptr %fd_, align 8
  %call3 = tail call i64 @fwrite(ptr noundef %1, i64 noundef 1, i64 noundef %0, ptr noundef %2)
  %cmp.not = icmp eq i64 %call3, %0
  br i1 %cmp.not, label %if.end, label %if.then

if.then:                                          ; preds = %entry
  %filename_ = getelementptr inbounds i8, ptr %this, i64 16
  call void @_ZN6spdlog7details2os15filename_to_strERKNSt7__cxx1112basic_stringIcSt11char_traitsIcESaIcEEE(ptr nonnull sret(%"class.std::__cxx11::basic_string") align 8 %ref.tmp4, ptr noundef nonnull align 8 dereferenceable(32) %filename_)
  %call.i4 = invoke noundef nonnull align 8 dereferenceable(32) ptr @_ZNSt7__cxx1112basic_stringIcSt11char_traitsIcESaIcEE6insertEmPKc(ptr noundef nonnull align 8 dereferenceable(32) %ref.tmp4, i64 noundef 0, ptr noundef nonnull @.str.7)
          to label %invoke.cont unwind label %lpad

invoke.cont:                                      ; preds = %if.then
  call void @_ZNSt7__cxx1112basic_stringIcSt11char_traitsIcESaIcEEC1EOS4_(ptr noundef nonnull align 8 dereferenceable(32) %ref.tmp, ptr noundef nonnull align 8 dereferenceable(32) %call.i4) #17
  %call5 = tail call ptr @__errno_location() #19
  %3 = load i32, ptr %call5, align 4
  invoke void @_ZN6spdlog15throw_spdlog_exERKNSt7__cxx1112basic_stringIcSt11char_traitsIcESaIcEEEi(ptr noundef nonnull align 8 dereferenceable(32) %ref.tmp, i32 noundef %3) #20
          to label %invoke.cont7 unwind label %lpad6

invoke.cont7:                                     ; preds = %invoke.cont
  unreachable

lpad:                                             ; preds = %if.then
  %4 = landingpad { ptr, i32 }
          cleanup
  br label %ehcleanup

lpad6:                                            ; preds = %invoke.cont
  %5 = landingpad { ptr, i32 }
          cleanup
  call void @_ZNSt7__cxx1112basic_stringIcSt11char_traitsIcESaIcEED1Ev(ptr noundef nonnull align 8 dereferenceable(32) %ref.tmp) #17
  br label %ehcleanup

ehcleanup:                                        ; preds = %lpad6, %lpad
  %.pn = phi { ptr, i32 } [ %5, %lpad6 ], [ %4, %lpad ]
  call void @_ZNSt7__cxx1112basic_stringIcSt11char_traitsIcESaIcEED1Ev(ptr noundef nonnull align 8 dereferenceable(32) %ref.tmp4) #17
  resume { ptr, i32 } %.pn

if.end:                                           ; preds = %entry
  ret void
}